target datalayout = "e-m:e-p270:32:32-p271:32:32-p272:64:64-i64:64-i128:128-f80:128-n8:16:32:64-S128"
target triple = "x86_64-pc-linux-gnu"

%struct.include_info = type { i32, i32, ptr, i32 }

; Function Attrs: nounwind uwtable
define ptr @stb_include_append_include(ptr noundef %0, i32 noundef %1, i32 noundef %2, i32 noundef %3, ptr noundef %4, i32 noundef %5) #0 {
  %7 = alloca ptr, align 8
  %8 = alloca i32, align 4
  %9 = alloca i32, align 4
  %10 = alloca i32, align 4
  %11 = alloca ptr, align 8
  %12 = alloca i32, align 4
  %13 = alloca ptr, align 8
  store ptr %0, ptr %7, align 8, !tbaa !15
  store i32 %1, ptr %8, align 4, !tbaa !16
  store i32 %2, ptr %9, align 4, !tbaa !16
  store i32 %3, ptr %10, align 4, !tbaa !16
  store ptr %4, ptr %11, align 8, !tbaa !3
  store i32 %5, ptr %12, align 4, !tbaa !16
  call void @llvm.lifetime.start.p0(i64 8, ptr %13) #8
  %14 = load ptr, ptr %7, align 8, !tbaa !15
  %15 = load i32, ptr %8, align 4, !tbaa !16
  %16 = add nsw i32 %15, 1
  %17 = sext i32 %16 to i64
  %18 = mul i64 24, %17
  %19 = call ptr @realloc(ptr noundef %14, i64 noundef %18) #10
  store ptr %19, ptr %13, align 8, !tbaa !15
  %20 = load i32, ptr %9, align 4, !tbaa !16
  %21 = load ptr, ptr %13, align 8, !tbaa !15
  %22 = load i32, ptr %8, align 4, !tbaa !16
  %23 = sext i32 %22 to i64
  %24 = getelementptr inbounds %struct.include_info, ptr %21, i64 %23
  %25 = getelementptr inbounds nuw %struct.include_info, ptr %24, i32 0, i32 0
  store i32 %20, ptr %25, align 8, !tbaa !18
  %26 = load i32, ptr %10, align 4, !tbaa !16
  %27 = load ptr, ptr %13, align 8, !tbaa !15
  %28 = load i32, ptr %8, align 4, !tbaa !16
  %29 = sext i32 %28 to i64
  %30 = getelementptr inbounds %struct.include_info, ptr %27, i64 %29
  %31 = getelementptr inbounds nuw %struct.include_info, ptr %30, i32 0, i32 1
  store i32 %26, ptr %31, align 4, !tbaa !20
  %32 = load ptr, ptr %11, align 8, !tbaa !3
  %33 = load ptr, ptr %13, align 8, !tbaa !15
  %34 = load i32, ptr %8, align 4, !tbaa !16
  %35 = sext i32 %34 to i64
  %36 = getelementptr inbounds %struct.include_info, ptr %33, i64 %35
  %37 = getelementptr inbounds nuw %struct.include_info, ptr %36, i32 0, i32 2
  store ptr %32, ptr %37, align 8, !tbaa !21
  %38 = load i32, ptr %12, align 4, !tbaa !16
  %39 = load ptr, ptr %13, align 8, !tbaa !15
  %40 = load i32, ptr %8, align 4, !tbaa !16
  %41 = sext i32 %40 to i64
  %42 = getelementptr inbounds %struct.include_info, ptr %39, i64 %41
  %43 = getelementptr inbounds nuw %struct.include_info, ptr %42, i32 0, i32 3
  store i32 %38, ptr %43, align 8, !tbaa !22
  %44 = load ptr, ptr %13, align 8, !tbaa !15
  call void @llvm.lifetime.end.p0(i64 8, ptr %13) #8
  ret ptr %44
}