; Function Attrs: mustprogress nounwind willreturn memory(write, argmem: readwrite, inaccessiblemem: readwrite) uwtable
define noalias noundef ptr @stb_include_append_include(ptr noundef captures(none) %0, i32 noundef %1, i32 noundef %2, i32 noundef %3, ptr noundef %4, i32 noundef %5) local_unnamed_addr #4 {
  %7 = add nsw i32 %1, 1
  %8 = sext i32 %7 to i64
  %9 = mul nsw i64 %8, 24
  %10 = tail call ptr @realloc(ptr noundef %0, i64 noundef %9) #15
  %11 = sext i32 %1 to i64
  %12 = getelementptr inbounds %struct.include_info, ptr %10, i64 %11
  store i32 %2, ptr %12, align 8, !tbaa !8
  %13 = getelementptr inbounds nuw i8, ptr %12, i64 4
  store i32 %3, ptr %13, align 4, !tbaa !13
  %14 = getelementptr inbounds nuw i8, ptr %12, i64 8
  store ptr %4, ptr %14, align 8, !tbaa !14
  %15 = getelementptr inbounds nuw i8, ptr %12, i64 16
  store i32 %5, ptr %15, align 8, !tbaa !15
  ret ptr %10
}